target datalayout = "e-m:e-p270:32:32-p271:32:32-p272:64:64-i64:64-i128:128-f80:128-n8:16:32:64-S128"
target triple = "x86_64-pc-linux-gnu"

%struct.psa_crypto_local_input_s = type { ptr, i64 }

; Function Attrs: nounwind uwtable
define internal i32 @psa_crypto_copy_input(ptr noundef %0, i64 noundef %1, ptr noundef %2, i64 noundef %3) #0 {
  %5 = alloca i32, align 4
  %6 = alloca ptr, align 8
  %7 = alloca i64, align 8
  %8 = alloca ptr, align 8
  %9 = alloca i64, align 8
  store ptr %0, ptr %6, align 8, !tbaa !29
  store i64 %1, ptr %7, align 8, !tbaa !20
  store ptr %2, ptr %8, align 8, !tbaa !29
  store i64 %3, ptr %9, align 8, !tbaa !20
  %10 = load i64, ptr %7, align 8, !tbaa !20
  %11 = load i64, ptr %9, align 8, !tbaa !20
  %12 = icmp ugt i64 %10, %11
  br i1 %12, label %13, label %14

13:                                               ; preds = %4
  store i32 -151, ptr %5, align 4
  br label %22

14:                                               ; preds = %4
  %15 = load i64, ptr %7, align 8, !tbaa !20
  %16 = icmp ugt i64 %15, 0
  br i1 %16, label %17, label %21

17:                                               ; preds = %14
  %18 = load ptr, ptr %8, align 8, !tbaa !29
  %19 = load ptr, ptr %6, align 8, !tbaa !29
  %20 = load i64, ptr %7, align 8, !tbaa !20
  call void @llvm.memcpy.p0.p0.i64(ptr align 1 %18, ptr align 1 %19, i64 %20, i1 false)
  br label %21

21:                                               ; preds = %17, %14
  store i32 0, ptr %5, align 4
  br label %22

22:                                               ; preds = %21, %13
  %23 = load i32, ptr %5, align 4
  ret i32 %23
}

; Function Attrs: nounwind uwtable
define hidden i32 @psa_crypto_local_input_alloc(ptr noundef %0, i64 noundef %1, ptr noundef %2) #0 {
  %4 = alloca i32, align 4
  %5 = alloca ptr, align 8
  %6 = alloca i64, align 8
  %7 = alloca ptr, align 8
  %8 = alloca i32, align 4
  %9 = alloca %struct.psa_crypto_local_input_s, align 8
  %10 = alloca i32, align 4
  store ptr %0, ptr %5, align 8, !tbaa !29
  store i64 %1, ptr %6, align 8, !tbaa !20
  store ptr %2, ptr %7, align 8, !tbaa !59
  call void @llvm.lifetime.start.p0(i64 4, ptr %8) #8
  %11 = load ptr, ptr %7, align 8, !tbaa !59
  %12 = getelementptr inbounds nuw %struct.psa_crypto_local_input_s, ptr %9, i32 0, i32 0
  store ptr null, ptr %12, align 8, !tbaa !55
  %13 = getelementptr inbounds nuw %struct.psa_crypto_local_input_s, ptr %9, i32 0, i32 1
  store i64 0, ptr %13, align 8, !tbaa !61
  call void @llvm.memcpy.p0.p0.i64(ptr align 8 %11, ptr align 8 %9, i64 16, i1 false), !tbaa.struct !62
  %14 = load i64, ptr %6, align 8, !tbaa !20
  %15 = icmp eq i64 %14, 0
  br i1 %15, label %16, label %17

16:                                               ; preds = %3
  store i32 0, ptr %4, align 4
  store i32 1, ptr %10, align 4
  br label %53

17:                                               ; preds = %3
  %18 = load i64, ptr %6, align 8, !tbaa !20
  %19 = call noalias ptr @calloc(i64 noundef %18, i64 noundef 1) #9
  %20 = load ptr, ptr %7, align 8, !tbaa !59
  %21 = getelementptr inbounds nuw %struct.psa_crypto_local_input_s, ptr %20, i32 0, i32 0
  store ptr %19, ptr %21, align 8, !tbaa !55
  %22 = load ptr, ptr %7, align 8, !tbaa !59
  %23 = getelementptr inbounds nuw %struct.psa_crypto_local_input_s, ptr %22, i32 0, i32 0
  %24 = load ptr, ptr %23, align 8, !tbaa !55
  %25 = icmp eq ptr %24, null
  br i1 %25, label %26, label %27

26:                                               ; preds = %17
  store i32 -141, ptr %4, align 4
  store i32 1, ptr %10, align 4
  br label %53

27:                                               ; preds = %17
  %28 = load i64, ptr %6, align 8, !tbaa !20
  %29 = load ptr, ptr %7, align 8, !tbaa !59
  %30 = getelementptr inbounds nuw %struct.psa_crypto_local_input_s, ptr %29, i32 0, i32 1
  store i64 %28, ptr %30, align 8, !tbaa !61
  %31 = load ptr, ptr %5, align 8, !tbaa !29
  %32 = load i64, ptr %6, align 8, !tbaa !20
  %33 = load ptr, ptr %7, align 8, !tbaa !59
  %34 = getelementptr inbounds nuw %struct.psa_crypto_local_input_s, ptr %33, i32 0, i32 0
  %35 = load ptr, ptr %34, align 8, !tbaa !55
  %36 = load ptr, ptr %7, align 8, !tbaa !59
  %37 = getelementptr inbounds nuw %struct.psa_crypto_local_input_s, ptr %36, i32 0, i32 1
  %38 = load i64, ptr %37, align 8, !tbaa !61
  %39 = call i32 @psa_crypto_copy_input(ptr noundef %31, i64 noundef %32, ptr noundef %35, i64 noundef %38)
  store i32 %39, ptr %8, align 4, !tbaa !3
  %40 = load i32, ptr %8, align 4, !tbaa !3
  %41 = icmp ne i32 %40, 0
  br i1 %41, label %42, label %43

42:                                               ; preds = %27
  br label %44

43:                                               ; preds = %27
  store i32 0, ptr %4, align 4
  store i32 1, ptr %10, align 4
  br label %53

44:                                               ; preds = %42
  %45 = load ptr, ptr %7, align 8, !tbaa !59
  %46 = getelementptr inbounds nuw %struct.psa_crypto_local_input_s, ptr %45, i32 0, i32 0
  %47 = load ptr, ptr %46, align 8, !tbaa !55
  call void @free(ptr noundef %47) #8
  %48 = load ptr, ptr %7, align 8, !tbaa !59
  %49 = getelementptr inbounds nuw %struct.psa_crypto_local_input_s, ptr %48, i32 0, i32 0
  store ptr null, ptr %49, align 8, !tbaa !55
  %50 = load ptr, ptr %7, align 8, !tbaa !59
  %51 = getelementptr inbounds nuw %struct.psa_crypto_local_input_s, ptr %50, i32 0, i32 1
  store i64 0, ptr %51, align 8, !tbaa !61
  %52 = load i32, ptr %8, align 4, !tbaa !3
  store i32 %52, ptr %4, align 4
  store i32 1, ptr %10, align 4
  br label %53

53:                                               ; preds = %44, %43, %26, %16
  call void @llvm.lifetime.end.p0(i64 4, ptr %8) #8
  %54 = load i32, ptr %4, align 4
  ret i32 %54
}