; Function Attrs: mustprogress nofree nounwind willreturn uwtable
define hidden range(i32 -141, 1) i32 @psa_crypto_local_input_alloc(ptr noundef readonly captures(none) %0, i64 noundef %1, ptr noundef writeonly captures(none) initializes((0, 16)) %2) local_unnamed_addr #5 {
  %.sroa.2.0..sroa_idx = getelementptr inbounds nuw i8, ptr %2, i64 8
  %4 = icmp eq i64 %1, 0
  tail call void @llvm.memset.p0.i64(ptr noundef nonnull align 8 dereferenceable(16) %2, i8 0, i64 16, i1 false)
  br i1 %4, label %9, label %5

5:                                                ; preds = %3
  %6 = tail call noalias ptr @calloc(i64 noundef %1, i64 noundef 1) #21
  store ptr %6, ptr %2, align 8, !tbaa !48
  %7 = icmp eq ptr %6, null
  br i1 %7, label %9, label %8

8:                                                ; preds = %5
  store i64 %1, ptr %.sroa.2.0..sroa_idx, align 8, !tbaa !50
  tail call void @llvm.memcpy.p0.p0.i64(ptr noundef nonnull align 1 dereferenceable(1) %6, ptr noundef nonnull readonly align 1 dereferenceable(1) %0, i64 range(i64 1, 0) %1, i1 false)
  br label %9

9:                                                ; preds = %8, %5, %3
  %.0 = phi i32 [ 0, %3 ], [ -141, %5 ], [ 0, %8 ]
  ret i32 %.0
}